; ModuleID = '30/1727.cpp'
source_filename = "30/1727.cpp"
target datalayout = "e-m:e-p270:32:32-p271:32:32-p272:64:64-i64:64-f80:128-n8:16:32:64-S128"
target triple = "x86_64-pc-linux-gnu"

%"class.std::ios_base::Init" = type { i8 }
%"class.std::basic_istream" = type { i32 (...)**, i64, %"class.std::basic_ios" }
%"class.std::basic_ios" = type { %"class.std::ios_base", %"class.std::basic_ostream"*, i8, i8, %"class.std::basic_streambuf"*, %"class.std::ctype"*, %"class.std::num_put"*, %"class.std::num_get"* }
%"class.std::ios_base" = type { i32 (...)**, i64, i64, i32, i32, i32, %"struct.std::ios_base::_Callback_list"*, %"struct.std::ios_base::_Words", [8 x %"struct.std::ios_base::_Words"], i32, %"struct.std::ios_base::_Words"*, %"class.std::locale" }
%"struct.std::ios_base::_Callback_list" = type { %"struct.std::ios_base::_Callback_list"*, void (i32, %"class.std::ios_base"*, i32)*, i32, i32 }
%"struct.std::ios_base::_Words" = type { i8*, i64 }
%"class.std::locale" = type { %"class.std::locale::_Impl"* }
%"class.std::locale::_Impl" = type { i32, %"class.std::locale::facet"**, i64, %"class.std::locale::facet"**, i8** }
%"class.std::locale::facet" = type <{ i32 (...)**, i32, [4 x i8] }>
%"class.std::basic_ostream" = type { i32 (...)**, %"class.std::basic_ios" }
%"class.std::basic_streambuf" = type { i32 (...)**, i8*, i8*, i8*, i8*, i8*, i8*, %"class.std::locale" }
%"class.std::ctype" = type <{ %"class.std::locale::facet.base", [4 x i8], %struct.__locale_struct*, i8, [7 x i8], i32*, i32*, i16*, i8, [256 x i8], [256 x i8], i8, [6 x i8] }>
%"class.std::locale::facet.base" = type <{ i32 (...)**, i32 }>
%struct.__locale_struct = type { [13 x %struct.__locale_data*], i16*, i32*, i32*, [13 x i8*] }
%struct.__locale_data = type opaque
%"class.std::num_put" = type { %"class.std::locale::facet.base", [4 x i8] }
%"class.std::num_get" = type { %"class.std::locale::facet.base", [4 x i8] }

@_ZStL8__ioinit = internal global %"class.std::ios_base::Init" zeroinitializer, align 1
@__dso_handle = external hidden global i8
@_ZSt3cin = external dso_local global %"class.std::basic_istream", align 8
@_ZSt4cout = external dso_local global %"class.std::basic_ostream", align 8
@llvm.global_ctors = appending global [1 x { i32, void ()*, i8* }] [{ i32, void ()*, i8* } { i32 65535, void ()* @_GLOBAL__sub_I_1727.cpp, i8* null }]

; Function Attrs: noinline uwtable
define internal void @__cxx_global_var_init() #0 section ".text.startup" {
  call void @_ZNSt8ios_base4InitC1Ev(%"class.std::ios_base::Init"* @_ZStL8__ioinit)
  %1 = call i32 @__cxa_atexit(void (i8*)* bitcast (void (%"class.std::ios_base::Init"*)* @_ZNSt8ios_base4InitD1Ev to void (i8*)*), i8* getelementptr inbounds (%"class.std::ios_base::Init", %"class.std::ios_base::Init"* @_ZStL8__ioinit, i32 0, i32 0), i8* @__dso_handle) #3
  ret void
}

declare dso_local void @_ZNSt8ios_base4InitC1Ev(%"class.std::ios_base::Init"*) unnamed_addr #1

; Function Attrs: nounwind
declare dso_local void @_ZNSt8ios_base4InitD1Ev(%"class.std::ios_base::Init"*) unnamed_addr #2

; Function Attrs: nounwind
declare dso_local i32 @__cxa_atexit(void (i8*)*, i8*, i8*) #3

; Function Attrs: noinline norecurse uwtable
define dso_local i32 @main() #4 {
  %1 = alloca i32, align 4
  %2 = alloca i32, align 4
  %3 = alloca i32, align 4
  %4 = alloca i32, align 4
  store i32 0, i32* %1, align 4
  store i32 0, i32* %4, align 4
  %5 = call dereferenceable(280) %"class.std::basic_istream"* @_ZNSirsERi(%"class.std::basic_istream"* @_ZSt3cin, i32* dereferenceable(4) %2)
  store i32 1, i32* %3, align 4
  br label %6

6:                                                ; preds = %72, %0
  %7 = load i32, i32* %3, align 4
  %8 = load i32, i32* %2, align 4
  %9 = icmp sle i32 %7, %8
  br i1 %9, label %10, label %75

10:                                               ; preds = %6
  %11 = load i32, i32* %3, align 4
  %12 = icmp ne i32 %11, 7
  br i1 %12, label %13, label %71

13:                                               ; preds = %10
  %14 = load i32, i32* %3, align 4
  %15 = icmp ne i32 %14, 17
  br i1 %15, label %16, label %71

16:                                               ; preds = %13
  %17 = load i32, i32* %3, align 4
  %18 = icmp ne i32 %17, 27
  br i1 %18, label %19, label %71

19:                                               ; preds = %16
  %20 = load i32, i32* %3, align 4
  %21 = icmp ne i32 %20, 37
  br i1 %21, label %22, label %71

22:                                               ; preds = %19
  %23 = load i32, i32* %3, align 4
  %24 = icmp ne i32 %23, 47
  br i1 %24, label %25, label %71

25:                                               ; preds = %22
  %26 = load i32, i32* %3, align 4
  %27 = icmp ne i32 %26, 57
  br i1 %27, label %28, label %71

28:                                               ; preds = %25
  %29 = load i32, i32* %3, align 4
  %30 = icmp ne i32 %29, 67
  br i1 %30, label %31, label %71

31:                                               ; preds = %28
  %32 = load i32, i32* %3, align 4
  %33 = icmp ne i32 %32, 87
  br i1 %33, label %34, label %71

34:                                               ; preds = %31
  %35 = load i32, i32* %3, align 4
  %36 = icmp ne i32 %35, 97
  br i1 %36, label %37, label %71

37:                                               ; preds = %34
  %38 = load i32, i32* %3, align 4
  %39 = icmp ne i32 %38, 71
  br i1 %39, label %40, label %71

40:                                               ; preds = %37
  %41 = load i32, i32* %3, align 4
  %42 = icmp ne i32 %41, 72
  br i1 %42, label %43, label %71

43:                                               ; preds = %40
  %44 = load i32, i32* %3, align 4
  %45 = icmp ne i32 %44, 73
  br i1 %45, label %46, label %71

46:                                               ; preds = %43
  %47 = load i32, i32* %3, align 4
  %48 = icmp ne i32 %47, 74
  br i1 %48, label %49, label %71

49:                                               ; preds = %46
  %50 = load i32, i32* %3, align 4
  %51 = icmp ne i32 %50, 75
  br i1 %51, label %52, label %71

52:                                               ; preds = %49
  %53 = load i32, i32* %3, align 4
  %54 = icmp ne i32 %53, 76
  br i1 %54, label %55, label %71

55:                                               ; preds = %52
  %56 = load i32, i32* %3, align 4
  %57 = icmp ne i32 %56, 78
  br i1 %57, label %58, label %71

58:                                               ; preds = %55
  %59 = load i32, i32* %3, align 4
  %60 = icmp ne i32 %59, 79
  br i1 %60, label %61, label %71

61:                                               ; preds = %58
  %62 = load i32, i32* %3, align 4
  %63 = srem i32 %62, 7
  %64 = icmp ne i32 %63, 0
  br i1 %64, label %65, label %71

65:                                               ; preds = %61
  %66 = load i32, i32* %4, align 4
  %67 = load i32, i32* %3, align 4
  %68 = load i32, i32* %3, align 4
  %69 = mul nsw i32 %67, %68
  %70 = add nsw i32 %66, %69
  store i32 %70, i32* %4, align 4
  br label %71

71:                                               ; preds = %65, %61, %58, %55, %52, %49, %46, %43, %40, %37, %34, %31, %28, %25, %22, %19, %16, %13, %10
  br label %72

72:                                               ; preds = %71
  %73 = load i32, i32* %3, align 4
  %74 = add nsw i32 %73, 1
  store i32 %74, i32* %3, align 4
  br label %6

75:                                               ; preds = %6
  %76 = load i32, i32* %4, align 4
  %77 = call dereferenceable(272) %"class.std::basic_ostream"* @_ZNSolsEi(%"class.std::basic_ostream"* @_ZSt4cout, i32 %76)
  %78 = call dereferenceable(272) %"class.std::basic_ostream"* @_ZNSolsEPFRSoS_E(%"class.std::basic_ostream"* %77, %"class.std::basic_ostream"* (%"class.std::basic_ostream"*)* @_ZSt4endlIcSt11char_traitsIcEERSt13basic_ostreamIT_T0_ES6_)
  ret i32 0
}

declare dso_local dereferenceable(280) %"class.std::basic_istream"* @_ZNSirsERi(%"class.std::basic_istream"*, i32* dereferenceable(4)) #1

declare dso_local dereferenceable(272) %"class.std::basic_ostream"* @_ZNSolsEi(%"class.std::basic_ostream"*, i32) #1

declare dso_local dereferenceable(272) %"class.std::basic_ostream"* @_ZNSolsEPFRSoS_E(%"class.std::basic_ostream"*, %"class.std::basic_ostream"* (%"class.std::basic_ostream"*)*) #1

declare dso_local dereferenceable(272) %"class.std::basic_ostream"* @_ZSt4endlIcSt11char_traitsIcEERSt13basic_ostreamIT_T0_ES6_(%"class.std::basic_ostream"* dereferenceable(272)) #1

; Function Attrs: noinline uwtable
define internal void @_GLOBAL__sub_I_1727.cpp() #0 section ".text.startup" {
  call void @__cxx_global_var_init()
  ret void
}


!llvm.module.flags = !{!0}
!llvm.ident = !{!1}

!0 = !{i32 1, !"wchar_size", i32 4}
!1 = !{!"clang version 10.0.0-4ubuntu1 "}
