; ModuleID = 'source-C-CXX/29/1727.cpp'
source_filename = "source-C-CXX/29/1727.cpp"
target datalayout = "e-m:e-p270:32:32-p271:32:32-p272:64:64-i64:64-f80:128-n8:16:32:64-S128"
target triple = "x86_64-pc-linux-gnu"

%"class.std::ios_base::Init" = type { i8 }
%"class.std::basic_istream" = type { i32 (...)**, i64, %"class.std::basic_ios" }
%"class.std::basic_ios" = type { %"class.std::ios_base", %"class.std::basic_ostream"*, i8, i8, %"class.std::basic_streambuf"*, %"class.std::ctype"*, %"class.std::num_put"*, %"class.std::num_get"* }
%"class.std::ios_base" = type { i32 (...)**, i64, i64, i32, i32, i32, %"struct.std::ios_base::_Callback_list"*, %"struct.std::ios_base::_Words", [8 x %"struct.std::ios_base::_Words"], i32, %"struct.std::ios_base::_Words"*, %"class.std::locale" }
%"struct.std::ios_base::_Callback_list" = type { %"struct.std::ios_base::_Callback_list"*, void (i32, %"class.std::ios_base"*, i32)*, i32, i32 }
%"struct.std::ios_base::_Words" = type { i8*, i64 }
%"class.std::locale" = type { %"class.std::locale::_Impl"* }
%"class.std::locale::_Impl" = type { i32, %"class.std::locale::facet"**, i64, %"class.std::locale::facet"**, i8** }
%"class.std::locale::facet" = type <{ i32 (...)**, i32, [4 x i8] }>
%"class.std::basic_ostream" = type { i32 (...)**, %"class.std::basic_ios" }
%"class.std::basic_streambuf" = type { i32 (...)**, i8*, i8*, i8*, i8*, i8*, i8*, %"class.std::locale" }
%"class.std::ctype" = type <{ %"class.std::locale::facet.base", [4 x i8], %struct.__locale_struct*, i8, [7 x i8], i32*, i32*, i16*, i8, [256 x i8], [256 x i8], i8, [6 x i8] }>
%"class.std::locale::facet.base" = type <{ i32 (...)**, i32 }>
%struct.__locale_struct = type { [13 x %struct.__locale_data*], i16*, i32*, i32*, [13 x i8*] }
%struct.__locale_data = type opaque
%"class.std::num_put" = type { %"class.std::locale::facet.base", [4 x i8] }
%"class.std::num_get" = type { %"class.std::locale::facet.base", [4 x i8] }

@_ZStL8__ioinit = internal global %"class.std::ios_base::Init" zeroinitializer, align 1
@__dso_handle = external hidden global i8
@_ZSt3cin = external global %"class.std::basic_istream", align 8
@_ZSt4cout = external global %"class.std::basic_ostream", align 8
@llvm.global_ctors = appending global [1 x { i32, void ()*, i8* }] [{ i32, void ()*, i8* } { i32 65535, void ()* @_GLOBAL__sub_I_1727.cpp, i8* null }]

declare void @_ZNSt8ios_base4InitC1Ev(%"class.std::ios_base::Init"* nonnull align 1 dereferenceable(1)) unnamed_addr #0

; Function Attrs: nounwind
declare void @_ZNSt8ios_base4InitD1Ev(%"class.std::ios_base::Init"* nonnull align 1 dereferenceable(1)) unnamed_addr #1

; Function Attrs: nofree nounwind
declare i32 @__cxa_atexit(void (i8*)*, i8*, i8*) local_unnamed_addr #2

; Function Attrs: mustprogress norecurse sspstrong uwtable
define dso_local i32 @main() local_unnamed_addr #3 {
  %1 = alloca i32, align 4
  %2 = bitcast i32* %1 to i8*
  call void @llvm.lifetime.start.p0i8(i64 4, i8* nonnull %2) #7
  %3 = call nonnull align 8 dereferenceable(16) %"class.std::basic_istream"* @_ZNSirsERi(%"class.std::basic_istream"* nonnull align 8 dereferenceable(16) @_ZSt3cin, i32* nonnull align 4 dereferenceable(4) %1)
  %4 = load i32, i32* %1, align 4, !tbaa !5
  %5 = icmp slt i32 %4, 1
  br i1 %5, label %36, label %6

6:                                                ; preds = %0
  %7 = and i32 %4, 1
  %8 = icmp eq i32 %4, 1
  br i1 %8, label %24, label %9

9:                                                ; preds = %6
  %10 = and i32 %4, -2
  br label %11

11:                                               ; preds = %74, %9
  %12 = phi i32 [ 0, %9 ], [ %75, %74 ]
  %13 = phi i32 [ 1, %9 ], [ %76, %74 ]
  %14 = phi i32 [ %10, %9 ], [ %77, %74 ]
  switch i32 %13, label %15 [
    i32 97, label %21
    i32 87, label %21
    i32 79, label %21
    i32 78, label %21
    i32 76, label %21
    i32 75, label %21
    i32 74, label %21
    i32 73, label %21
    i32 72, label %21
    i32 71, label %21
    i32 67, label %21
    i32 57, label %21
    i32 47, label %21
    i32 37, label %21
    i32 27, label %21
    i32 17, label %21
    i32 7, label %21
  ]

15:                                               ; preds = %11
  %16 = urem i32 %13, 7
  %17 = icmp eq i32 %16, 0
  br i1 %17, label %21, label %18

18:                                               ; preds = %15
  %19 = mul nsw i32 %13, %13
  %20 = add nsw i32 %12, %19
  br label %21

21:                                               ; preds = %11, %11, %11, %11, %11, %11, %11, %11, %11, %11, %11, %11, %11, %11, %11, %11, %11, %15, %18
  %22 = phi i32 [ %20, %18 ], [ %12, %15 ], [ %12, %11 ], [ %12, %11 ], [ %12, %11 ], [ %12, %11 ], [ %12, %11 ], [ %12, %11 ], [ %12, %11 ], [ %12, %11 ], [ %12, %11 ], [ %12, %11 ], [ %12, %11 ], [ %12, %11 ], [ %12, %11 ], [ %12, %11 ], [ %12, %11 ], [ %12, %11 ], [ %12, %11 ]
  %23 = add nuw i32 %13, 1
  switch i32 %13, label %68 [
    i32 96, label %74
    i32 86, label %74
    i32 78, label %74
    i32 77, label %74
    i32 75, label %74
    i32 74, label %74
    i32 73, label %74
    i32 72, label %74
    i32 71, label %74
    i32 70, label %74
    i32 66, label %74
    i32 56, label %74
    i32 46, label %74
    i32 36, label %74
    i32 26, label %74
    i32 16, label %74
    i32 6, label %74
  ]

24:                                               ; preds = %74, %6
  %25 = phi i32 [ undef, %6 ], [ %75, %74 ]
  %26 = phi i32 [ 0, %6 ], [ %75, %74 ]
  %27 = phi i32 [ 1, %6 ], [ %76, %74 ]
  %28 = icmp eq i32 %7, 0
  br i1 %28, label %36, label %29

29:                                               ; preds = %24
  switch i32 %27, label %30 [
    i32 97, label %36
    i32 87, label %36
    i32 79, label %36
    i32 78, label %36
    i32 76, label %36
    i32 75, label %36
    i32 74, label %36
    i32 73, label %36
    i32 72, label %36
    i32 71, label %36
    i32 67, label %36
    i32 57, label %36
    i32 47, label %36
    i32 37, label %36
    i32 27, label %36
    i32 17, label %36
    i32 7, label %36
  ]

30:                                               ; preds = %29
  %31 = urem i32 %27, 7
  %32 = icmp eq i32 %31, 0
  br i1 %32, label %36, label %33

33:                                               ; preds = %30
  %34 = mul nsw i32 %27, %27
  %35 = add nsw i32 %26, %34
  br label %36

36:                                               ; preds = %24, %29, %29, %29, %29, %29, %29, %29, %29, %29, %29, %29, %29, %29, %29, %29, %29, %29, %30, %33, %0
  %37 = phi i32 [ 0, %0 ], [ %25, %24 ], [ %35, %33 ], [ %26, %30 ], [ %26, %29 ], [ %26, %29 ], [ %26, %29 ], [ %26, %29 ], [ %26, %29 ], [ %26, %29 ], [ %26, %29 ], [ %26, %29 ], [ %26, %29 ], [ %26, %29 ], [ %26, %29 ], [ %26, %29 ], [ %26, %29 ], [ %26, %29 ], [ %26, %29 ], [ %26, %29 ], [ %26, %29 ]
  %38 = call nonnull align 8 dereferenceable(8) %"class.std::basic_ostream"* @_ZNSolsEi(%"class.std::basic_ostream"* nonnull align 8 dereferenceable(8) @_ZSt4cout, i32 %37)
  %39 = bitcast %"class.std::basic_ostream"* %38 to i8**
  %40 = load i8*, i8** %39, align 8, !tbaa !9
  %41 = getelementptr i8, i8* %40, i64 -24
  %42 = bitcast i8* %41 to i64*
  %43 = load i64, i64* %42, align 8
  %44 = bitcast %"class.std::basic_ostream"* %38 to i8*
  %45 = add nsw i64 %43, 240
  %46 = getelementptr inbounds i8, i8* %44, i64 %45
  %47 = bitcast i8* %46 to %"class.std::ctype"**
  %48 = load %"class.std::ctype"*, %"class.std::ctype"** %47, align 8, !tbaa !11
  %49 = icmp eq %"class.std::ctype"* %48, null
  br i1 %49, label %50, label %51

50:                                               ; preds = %36
  call void @_ZSt16__throw_bad_castv() #8
  unreachable

51:                                               ; preds = %36
  %52 = getelementptr inbounds %"class.std::ctype", %"class.std::ctype"* %48, i64 0, i32 8
  %53 = load i8, i8* %52, align 8, !tbaa !15
  %54 = icmp eq i8 %53, 0
  br i1 %54, label %58, label %55

55:                                               ; preds = %51
  %56 = getelementptr inbounds %"class.std::ctype", %"class.std::ctype"* %48, i64 0, i32 9, i64 10
  %57 = load i8, i8* %56, align 1, !tbaa !17
  br label %64

58:                                               ; preds = %51
  call void @_ZNKSt5ctypeIcE13_M_widen_initEv(%"class.std::ctype"* nonnull align 8 dereferenceable(570) %48)
  %59 = bitcast %"class.std::ctype"* %48 to i8 (%"class.std::ctype"*, i8)***
  %60 = load i8 (%"class.std::ctype"*, i8)**, i8 (%"class.std::ctype"*, i8)*** %59, align 8, !tbaa !9
  %61 = getelementptr inbounds i8 (%"class.std::ctype"*, i8)*, i8 (%"class.std::ctype"*, i8)** %60, i64 6
  %62 = load i8 (%"class.std::ctype"*, i8)*, i8 (%"class.std::ctype"*, i8)** %61, align 8
  %63 = call signext i8 %62(%"class.std::ctype"* nonnull align 8 dereferenceable(570) %48, i8 signext 10)
  br label %64

64:                                               ; preds = %55, %58
  %65 = phi i8 [ %57, %55 ], [ %63, %58 ]
  %66 = call nonnull align 8 dereferenceable(8) %"class.std::basic_ostream"* @_ZNSo3putEc(%"class.std::basic_ostream"* nonnull align 8 dereferenceable(8) %38, i8 signext %65)
  %67 = call nonnull align 8 dereferenceable(8) %"class.std::basic_ostream"* @_ZNSo5flushEv(%"class.std::basic_ostream"* nonnull align 8 dereferenceable(8) %66)
  call void @llvm.lifetime.end.p0i8(i64 4, i8* nonnull %2) #7
  ret i32 0

68:                                               ; preds = %21
  %69 = urem i32 %23, 7
  %70 = icmp eq i32 %69, 0
  br i1 %70, label %74, label %71

71:                                               ; preds = %68
  %72 = mul nsw i32 %23, %23
  %73 = add nsw i32 %22, %72
  br label %74

74:                                               ; preds = %71, %68, %21, %21, %21, %21, %21, %21, %21, %21, %21, %21, %21, %21, %21, %21, %21, %21, %21
  %75 = phi i32 [ %73, %71 ], [ %22, %68 ], [ %22, %21 ], [ %22, %21 ], [ %22, %21 ], [ %22, %21 ], [ %22, %21 ], [ %22, %21 ], [ %22, %21 ], [ %22, %21 ], [ %22, %21 ], [ %22, %21 ], [ %22, %21 ], [ %22, %21 ], [ %22, %21 ], [ %22, %21 ], [ %22, %21 ], [ %22, %21 ], [ %22, %21 ]
  %76 = add nuw i32 %13, 2
  %77 = add i32 %14, -2
  %78 = icmp eq i32 %77, 0
  br i1 %78, label %24, label %11, !llvm.loop !18
}

; Function Attrs: argmemonly mustprogress nofree nosync nounwind willreturn
declare void @llvm.lifetime.start.p0i8(i64 immarg, i8* nocapture) #4

declare nonnull align 8 dereferenceable(16) %"class.std::basic_istream"* @_ZNSirsERi(%"class.std::basic_istream"* nonnull align 8 dereferenceable(16), i32* nonnull align 4 dereferenceable(4)) local_unnamed_addr #0

declare nonnull align 8 dereferenceable(8) %"class.std::basic_ostream"* @_ZNSolsEi(%"class.std::basic_ostream"* nonnull align 8 dereferenceable(8), i32) local_unnamed_addr #0

; Function Attrs: argmemonly mustprogress nofree nosync nounwind willreturn
declare void @llvm.lifetime.end.p0i8(i64 immarg, i8* nocapture) #4

declare nonnull align 8 dereferenceable(8) %"class.std::basic_ostream"* @_ZNSo3putEc(%"class.std::basic_ostream"* nonnull align 8 dereferenceable(8), i8 signext) local_unnamed_addr #0

declare nonnull align 8 dereferenceable(8) %"class.std::basic_ostream"* @_ZNSo5flushEv(%"class.std::basic_ostream"* nonnull align 8 dereferenceable(8)) local_unnamed_addr #0

; Function Attrs: noreturn
declare void @_ZSt16__throw_bad_castv() local_unnamed_addr #5

declare void @_ZNKSt5ctypeIcE13_M_widen_initEv(%"class.std::ctype"* nonnull align 8 dereferenceable(570)) local_unnamed_addr #0

; Function Attrs: sspstrong uwtable
define internal void @_GLOBAL__sub_I_1727.cpp() #6 section ".text.startup" {
  tail call void @_ZNSt8ios_base4InitC1Ev(%"class.std::ios_base::Init"* nonnull align 1 dereferenceable(1) @_ZStL8__ioinit)
  %1 = tail call i32 @__cxa_atexit(void (i8*)* bitcast (void (%"class.std::ios_base::Init"*)* @_ZNSt8ios_base4InitD1Ev to void (i8*)*), i8* getelementptr inbounds (%"class.std::ios_base::Init", %"class.std::ios_base::Init"* @_ZStL8__ioinit, i64 0, i32 0), i8* nonnull @__dso_handle) #7
  ret void
}


!llvm.module.flags = !{!0, !1, !2, !3}
!llvm.ident = !{!4}

!0 = !{i32 1, !"wchar_size", i32 4}
!1 = !{i32 7, !"PIC Level", i32 2}
!2 = !{i32 7, !"PIE Level", i32 2}
!3 = !{i32 7, !"uwtable", i32 1}
!4 = !{!"clang version 13.0.0"}
!5 = !{!6, !6, i64 0}
!6 = !{!"int", !7, i64 0}
!7 = !{!"omnipotent char", !8, i64 0}
!8 = !{!"Simple C++ TBAA"}
!9 = !{!10, !10, i64 0}
!10 = !{!"vtable pointer", !8, i64 0}
!11 = !{!12, !13, i64 240}
!12 = !{!"_ZTSSt9basic_iosIcSt11char_traitsIcEE", !13, i64 216, !7, i64 224, !14, i64 225, !13, i64 232, !13, i64 240, !13, i64 248, !13, i64 256}
!13 = !{!"any pointer", !7, i64 0}
!14 = !{!"bool", !7, i64 0}
!15 = !{!16, !7, i64 56}
!16 = !{!"_ZTSSt5ctypeIcE", !13, i64 16, !14, i64 24, !13, i64 32, !13, i64 40, !13, i64 48, !7, i64 56, !7, i64 57, !7, i64 313, !7, i64 569}
!17 = !{!7, !7, i64 0}
!18 = distinct !{!18, !19}
!19 = !{!"llvm.loop.mustprogress"}
